target datalayout = "e-m:e-p270:32:32-p271:32:32-p272:64:64-i64:64-i128:128-f80:128-n8:16:32:64-S128"
target triple = "x86_64-pc-linux-gnu"

%struct.Llb_Mgr_t_ = type { ptr, ptr, i32, ptr, ptr, i32, i32, i32, ptr }
%struct.Llb_Var_t_ = type { i32, i32, ptr }
%struct.Vec_Int_t_ = type { i32, i32, ptr }
%struct.Llb_Prt_t_ = type { i32, i32, ptr, ptr }

; Function Attrs: inlinehint nounwind uwtable
define internal ptr @Llb_MgrPart(ptr noundef %0, i32 noundef %1) #1 {
  %3 = alloca ptr, align 8
  %4 = alloca i32, align 4
  store ptr %0, ptr %3, align 8, !tbaa !3
  store i32 %1, ptr %4, align 4, !tbaa !50
  %5 = load ptr, ptr %3, align 8, !tbaa !3
  %6 = getelementptr inbounds nuw %struct.Llb_Mgr_t_, ptr %5, i32 0, i32 3
  %7 = load ptr, ptr %6, align 8, !tbaa !26
  %8 = load i32, ptr %4, align 4, !tbaa !50
  %9 = sext i32 %8 to i64
  %10 = getelementptr inbounds ptr, ptr %7, i64 %9
  %11 = load ptr, ptr %10, align 8, !tbaa !24
  ret ptr %11
}

; Function Attrs: inlinehint nounwind uwtable
define internal i32 @Vec_IntEntry(ptr noundef %0, i32 noundef %1) #1 {
  %3 = alloca ptr, align 8
  %4 = alloca i32, align 4
  store ptr %0, ptr %3, align 8, !tbaa !21
  store i32 %1, ptr %4, align 4, !tbaa !50
  %5 = load ptr, ptr %3, align 8, !tbaa !21
  %6 = getelementptr inbounds nuw %struct.Vec_Int_t_, ptr %5, i32 0, i32 2
  %7 = load ptr, ptr %6, align 8, !tbaa !22
  %8 = load i32, ptr %4, align 4, !tbaa !50
  %9 = sext i32 %8 to i64
  %10 = getelementptr inbounds i32, ptr %7, i64 %9
  %11 = load i32, ptr %10, align 4, !tbaa !50
  ret i32 %11
}

; Function Attrs: inlinehint nounwind uwtable
define internal i32 @Vec_IntSize(ptr noundef %0) #1 {
  %2 = alloca ptr, align 8
  store ptr %0, ptr %2, align 8, !tbaa !21
  %3 = load ptr, ptr %2, align 8, !tbaa !21
  %4 = getelementptr inbounds nuw %struct.Vec_Int_t_, ptr %3, i32 0, i32 1
  %5 = load i32, ptr %4, align 4, !tbaa !53
  ret i32 %5
}

; Function Attrs: inlinehint nounwind uwtable
define internal ptr @Llb_MgrVar(ptr noundef %0, i32 noundef %1) #1 {
  %3 = alloca ptr, align 8
  %4 = alloca i32, align 4
  store ptr %0, ptr %3, align 8, !tbaa !3
  store i32 %1, ptr %4, align 4, !tbaa !50
  %5 = load ptr, ptr %3, align 8, !tbaa !3
  %6 = getelementptr inbounds nuw %struct.Llb_Mgr_t_, ptr %5, i32 0, i32 4
  %7 = load ptr, ptr %6, align 8, !tbaa !10
  %8 = load i32, ptr %4, align 4, !tbaa !50
  %9 = sext i32 %8 to i64
  %10 = getelementptr inbounds ptr, ptr %7, i64 %9
  %11 = load ptr, ptr %10, align 8, !tbaa !8
  ret ptr %11
}

; Function Attrs: nounwind uwtable
define void @Llb_Nonlin4CheckVars(ptr noundef %0) #0 {
  %2 = alloca ptr, align 8
  %3 = alloca ptr, align 8
  %4 = alloca i32, align 4
  store ptr %0, ptr %2, align 8, !tbaa !3
  call void @llvm.lifetime.start.p0(i64 8, ptr %3) #8
  call void @llvm.lifetime.start.p0(i64 4, ptr %4) #8
  store i32 0, ptr %4, align 4, !tbaa !50
  br label %5

5:                                                ; preds = %23, %1
  %6 = load i32, ptr %4, align 4, !tbaa !50
  %7 = load ptr, ptr %2, align 8, !tbaa !3
  %8 = getelementptr inbounds nuw %struct.Llb_Mgr_t_, ptr %7, i32 0, i32 6
  %9 = load i32, ptr %8, align 4, !tbaa !56
  %10 = icmp slt i32 %6, %9
  br i1 %10, label %11, label %15

11:                                               ; preds = %5
  %12 = load ptr, ptr %2, align 8, !tbaa !3
  %13 = load i32, ptr %4, align 4, !tbaa !50
  %14 = call ptr @Llb_MgrVar(ptr noundef %12, i32 noundef %13)
  store ptr %14, ptr %3, align 8, !tbaa !8
  br label %15

15:                                               ; preds = %11, %5
  %16 = phi i1 [ false, %5 ], [ true, %11 ]
  br i1 %16, label %17, label %26

17:                                               ; preds = %15
  %18 = load ptr, ptr %3, align 8, !tbaa !8
  %19 = icmp eq ptr %18, null
  br i1 %19, label %20, label %21

20:                                               ; preds = %17
  br label %22

21:                                               ; preds = %17
  br label %22

22:                                               ; preds = %21, %20
  br label %23

23:                                               ; preds = %22
  %24 = load i32, ptr %4, align 4, !tbaa !50
  %25 = add nsw i32 %24, 1
  store i32 %25, ptr %4, align 4, !tbaa !50
  br label %5, !llvm.loop !106

26:                                               ; preds = %15
  call void @llvm.lifetime.end.p0(i64 4, ptr %4) #8
  call void @llvm.lifetime.end.p0(i64 8, ptr %3) #8
  ret void
}

; Function Attrs: nounwind uwtable
define i32 @Llb_Nonlin4NextPartitions(ptr noundef %0, ptr noundef %1, ptr noundef %2) #0 {
  %4 = alloca i32, align 4
  %5 = alloca ptr, align 8
  %6 = alloca ptr, align 8
  %7 = alloca ptr, align 8
  %8 = alloca ptr, align 8
  %9 = alloca ptr, align 8
  %10 = alloca ptr, align 8
  %11 = alloca ptr, align 8
  %12 = alloca ptr, align 8
  %13 = alloca i32, align 4
  %14 = alloca i32, align 4
  store ptr %0, ptr %5, align 8, !tbaa !3
  store ptr %1, ptr %6, align 8, !tbaa !107
  store ptr %2, ptr %7, align 8, !tbaa !107
  call void @llvm.lifetime.start.p0(i64 8, ptr %8) #8
  call void @llvm.lifetime.start.p0(i64 8, ptr %9) #8
  store ptr null, ptr %9, align 8, !tbaa !8
  call void @llvm.lifetime.start.p0(i64 8, ptr %10) #8
  call void @llvm.lifetime.start.p0(i64 8, ptr %11) #8
  store ptr null, ptr %11, align 8, !tbaa !24
  call void @llvm.lifetime.start.p0(i64 8, ptr %12) #8
  store ptr null, ptr %12, align 8, !tbaa !24
  call void @llvm.lifetime.start.p0(i64 4, ptr %13) #8
  %15 = load ptr, ptr %5, align 8, !tbaa !3
  call void @Llb_Nonlin4CheckVars(ptr noundef %15)
  store i32 0, ptr %13, align 4, !tbaa !50
  br label %16

16:                                               ; preds = %61, %3
  %17 = load i32, ptr %13, align 4, !tbaa !50
  %18 = load ptr, ptr %5, align 8, !tbaa !3
  %19 = getelementptr inbounds nuw %struct.Llb_Mgr_t_, ptr %18, i32 0, i32 6
  %20 = load i32, ptr %19, align 4, !tbaa !56
  %21 = icmp slt i32 %17, %20
  br i1 %21, label %22, label %26

22:                                               ; preds = %16
  %23 = load ptr, ptr %5, align 8, !tbaa !3
  %24 = load i32, ptr %13, align 4, !tbaa !50
  %25 = call ptr @Llb_MgrVar(ptr noundef %23, i32 noundef %24)
  store ptr %25, ptr %8, align 8, !tbaa !8
  br label %26

26:                                               ; preds = %22, %16
  %27 = phi i1 [ false, %16 ], [ true, %22 ]
  br i1 %27, label %28, label %64

28:                                               ; preds = %26
  %29 = load ptr, ptr %8, align 8, !tbaa !8
  %30 = icmp eq ptr %29, null
  br i1 %30, label %31, label %32

31:                                               ; preds = %28
  br label %60

32:                                               ; preds = %28
  %33 = load ptr, ptr %5, align 8, !tbaa !3
  %34 = getelementptr inbounds nuw %struct.Llb_Mgr_t_, ptr %33, i32 0, i32 2
  %35 = load i32, ptr %34, align 8, !tbaa !108
  %36 = icmp ne i32 %35, 0
  br i1 %36, label %37, label %46

37:                                               ; preds = %32
  %38 = load ptr, ptr %8, align 8, !tbaa !8
  %39 = getelementptr inbounds nuw %struct.Llb_Var_t_, ptr %38, i32 0, i32 1
  %40 = load i32, ptr %39, align 4, !tbaa !66
  %41 = load ptr, ptr %5, align 8, !tbaa !3
  %42 = getelementptr inbounds nuw %struct.Llb_Mgr_t_, ptr %41, i32 0, i32 2
  %43 = load i32, ptr %42, align 8, !tbaa !108
  %44 = icmp sgt i32 %40, %43
  br i1 %44, label %45, label %46

45:                                               ; preds = %37
  br label %61

46:                                               ; preds = %37, %32
  %47 = load ptr, ptr %9, align 8, !tbaa !8
  %48 = icmp eq ptr %47, null
  br i1 %48, label %57, label %49

49:                                               ; preds = %46
  %50 = load ptr, ptr %9, align 8, !tbaa !8
  %51 = getelementptr inbounds nuw %struct.Llb_Var_t_, ptr %50, i32 0, i32 1
  %52 = load i32, ptr %51, align 4, !tbaa !66
  %53 = load ptr, ptr %8, align 8, !tbaa !8
  %54 = getelementptr inbounds nuw %struct.Llb_Var_t_, ptr %53, i32 0, i32 1
  %55 = load i32, ptr %54, align 4, !tbaa !66
  %56 = icmp sgt i32 %52, %55
  br i1 %56, label %57, label %59

57:                                               ; preds = %49, %46
  %58 = load ptr, ptr %8, align 8, !tbaa !8
  store ptr %58, ptr %9, align 8, !tbaa !8
  br label %59

59:                                               ; preds = %57, %49
  br label %60

60:                                               ; preds = %59, %31
  br label %61

61:                                               ; preds = %60, %45
  %62 = load i32, ptr %13, align 4, !tbaa !50
  %63 = add nsw i32 %62, 1
  store i32 %63, ptr %13, align 4, !tbaa !50
  br label %16, !llvm.loop !109

64:                                               ; preds = %26
  %65 = load ptr, ptr %9, align 8, !tbaa !8
  %66 = icmp eq ptr %65, null
  br i1 %66, label %67, label %68

67:                                               ; preds = %64
  store i32 0, ptr %4, align 4
  store i32 1, ptr %14, align 4
  br label %136

68:                                               ; preds = %64
  store i32 0, ptr %13, align 4, !tbaa !50
  br label %69

69:                                               ; preds = %128, %68
  %70 = load i32, ptr %13, align 4, !tbaa !50
  %71 = load ptr, ptr %9, align 8, !tbaa !8
  %72 = getelementptr inbounds nuw %struct.Llb_Var_t_, ptr %71, i32 0, i32 2
  %73 = load ptr, ptr %72, align 8, !tbaa !20
  %74 = call i32 @Vec_IntSize(ptr noundef %73)
  %75 = icmp slt i32 %70, %74
  br i1 %75, label %76, label %84

76:                                               ; preds = %69
  %77 = load ptr, ptr %5, align 8, !tbaa !3
  %78 = load ptr, ptr %9, align 8, !tbaa !8
  %79 = getelementptr inbounds nuw %struct.Llb_Var_t_, ptr %78, i32 0, i32 2
  %80 = load ptr, ptr %79, align 8, !tbaa !20
  %81 = load i32, ptr %13, align 4, !tbaa !50
  %82 = call i32 @Vec_IntEntry(ptr noundef %80, i32 noundef %81)
  %83 = call ptr @Llb_MgrPart(ptr noundef %77, i32 noundef %82)
  store ptr %83, ptr %10, align 8, !tbaa !24
  br label %84

84:                                               ; preds = %76, %69
  %85 = phi i1 [ false, %69 ], [ true, %76 ]
  br i1 %85, label %86, label %131

86:                                               ; preds = %84
  %87 = load ptr, ptr %11, align 8, !tbaa !24
  %88 = icmp eq ptr %87, null
  br i1 %88, label %89, label %91

89:                                               ; preds = %86
  %90 = load ptr, ptr %10, align 8, !tbaa !24
  store ptr %90, ptr %11, align 8, !tbaa !24
  br label %127

91:                                               ; preds = %86
  %92 = load ptr, ptr %12, align 8, !tbaa !24
  %93 = icmp eq ptr %92, null
  br i1 %93, label %94, label %96

94:                                               ; preds = %91
  %95 = load ptr, ptr %10, align 8, !tbaa !24
  store ptr %95, ptr %12, align 8, !tbaa !24
  br label %126

96:                                               ; preds = %91
  %97 = load ptr, ptr %11, align 8, !tbaa !24
  %98 = getelementptr inbounds nuw %struct.Llb_Prt_t_, ptr %97, i32 0, i32 1
  %99 = load i32, ptr %98, align 4, !tbaa !65
  %100 = load ptr, ptr %10, align 8, !tbaa !24
  %101 = getelementptr inbounds nuw %struct.Llb_Prt_t_, ptr %100, i32 0, i32 1
  %102 = load i32, ptr %101, align 4, !tbaa !65
  %103 = icmp sgt i32 %99, %102
  br i1 %103, label %112, label %104

104:                                              ; preds = %96
  %105 = load ptr, ptr %12, align 8, !tbaa !24
  %106 = getelementptr inbounds nuw %struct.Llb_Prt_t_, ptr %105, i32 0, i32 1
  %107 = load i32, ptr %106, align 4, !tbaa !65
  %108 = load ptr, ptr %10, align 8, !tbaa !24
  %109 = getelementptr inbounds nuw %struct.Llb_Prt_t_, ptr %108, i32 0, i32 1
  %110 = load i32, ptr %109, align 4, !tbaa !65
  %111 = icmp sgt i32 %107, %110
  br i1 %111, label %112, label %125

112:                                              ; preds = %104, %96
  %113 = load ptr, ptr %11, align 8, !tbaa !24
  %114 = getelementptr inbounds nuw %struct.Llb_Prt_t_, ptr %113, i32 0, i32 1
  %115 = load i32, ptr %114, align 4, !tbaa !65
  %116 = load ptr, ptr %12, align 8, !tbaa !24
  %117 = getelementptr inbounds nuw %struct.Llb_Prt_t_, ptr %116, i32 0, i32 1
  %118 = load i32, ptr %117, align 4, !tbaa !65
  %119 = icmp sgt i32 %115, %118
  br i1 %119, label %120, label %122

120:                                              ; preds = %112
  %121 = load ptr, ptr %10, align 8, !tbaa !24
  store ptr %121, ptr %11, align 8, !tbaa !24
  br label %124

122:                                              ; preds = %112
  %123 = load ptr, ptr %10, align 8, !tbaa !24
  store ptr %123, ptr %12, align 8, !tbaa !24
  br label %124

124:                                              ; preds = %122, %120
  br label %125

125:                                              ; preds = %124, %104
  br label %126

126:                                              ; preds = %125, %94
  br label %127

127:                                              ; preds = %126, %89
  br label %128

128:                                              ; preds = %127
  %129 = load i32, ptr %13, align 4, !tbaa !50
  %130 = add nsw i32 %129, 1
  store i32 %130, ptr %13, align 4, !tbaa !50
  br label %69, !llvm.loop !110

131:                                              ; preds = %84
  %132 = load ptr, ptr %11, align 8, !tbaa !24
  %133 = load ptr, ptr %6, align 8, !tbaa !107
  store ptr %132, ptr %133, align 8, !tbaa !24
  %134 = load ptr, ptr %12, align 8, !tbaa !24
  %135 = load ptr, ptr %7, align 8, !tbaa !107
  store ptr %134, ptr %135, align 8, !tbaa !24
  store i32 1, ptr %4, align 4
  store i32 1, ptr %14, align 4
  br label %136

136:                                              ; preds = %131, %67
  call void @llvm.lifetime.end.p0(i64 4, ptr %13) #8
  call void @llvm.lifetime.end.p0(i64 8, ptr %12) #8
  call void @llvm.lifetime.end.p0(i64 8, ptr %11) #8
  call void @llvm.lifetime.end.p0(i64 8, ptr %10) #8
  call void @llvm.lifetime.end.p0(i64 8, ptr %9) #8
  call void @llvm.lifetime.end.p0(i64 8, ptr %8) #8
  %137 = load i32, ptr %4, align 4
  ret i32 %137
}