; Function Attrs: nofree norecurse nosync nounwind memory(read, argmem: readwrite, inaccessiblemem: none) uwtable
define range(i32 0, 2) i32 @Llb_Nonlin4NextPartitions(ptr noundef readonly captures(none) %0, ptr noundef writeonly captures(none) %1, ptr noundef writeonly captures(none) %2) local_unnamed_addr #9 {
  %4 = getelementptr inbounds nuw i8, ptr %0, i64 44
  %5 = load i32, ptr %4, align 4, !tbaa !51
  %6 = icmp sgt i32 %5, 0
  br i1 %6, label %.lr.ph, label %.critedge.thread

.lr.ph:                                           ; preds = %3
  %7 = getelementptr i8, ptr %0, i64 32
  %.val50 = load ptr, ptr %7, align 8, !tbaa !3
  %8 = getelementptr inbounds nuw i8, ptr %0, i64 16
  %wide.trip.count = zext nneg i32 %5 to i64
  br label %9

9:                                                ; preds = %.lr.ph, %28
  %indvars.iv = phi i64 [ 0, %.lr.ph ], [ %indvars.iv.next, %28 ]
  %.04452 = phi ptr [ null, %.lr.ph ], [ %.145, %28 ]
  %10 = getelementptr inbounds nuw ptr, ptr %.val50, i64 %indvars.iv
  %11 = load ptr, ptr %10, align 8, !tbaa !16
  %12 = icmp eq ptr %11, null
  br i1 %12, label %28, label %13

13:                                               ; preds = %9
  %14 = load i32, ptr %8, align 8, !tbaa !98
  %.not = icmp eq i32 %14, 0
  br i1 %.not, label %19, label %15

15:                                               ; preds = %13
  %16 = getelementptr inbounds nuw i8, ptr %11, i64 4
  %17 = load i32, ptr %16, align 4, !tbaa !59
  %18 = icmp sgt i32 %17, %14
  br i1 %18, label %28, label %19

19:                                               ; preds = %15, %13
  %20 = icmp eq ptr %.04452, null
  br i1 %20, label %27, label %21

21:                                               ; preds = %19
  %22 = getelementptr inbounds nuw i8, ptr %.04452, i64 4
  %23 = load i32, ptr %22, align 4, !tbaa !59
  %24 = getelementptr inbounds nuw i8, ptr %11, i64 4
  %25 = load i32, ptr %24, align 4, !tbaa !59
  %26 = icmp sgt i32 %23, %25
  br i1 %26, label %27, label %28

27:                                               ; preds = %21, %19
  br label %28

28:                                               ; preds = %9, %27, %21, %15
  %.145 = phi ptr [ %.04452, %9 ], [ %.04452, %15 ], [ %11, %27 ], [ %.04452, %21 ]
  %indvars.iv.next = add nuw nsw i64 %indvars.iv, 1
  %exitcond.not = icmp eq i64 %indvars.iv.next, %wide.trip.count
  br i1 %exitcond.not, label %.critedge, label %9, !llvm.loop !99

.critedge:                                        ; preds = %28
  %29 = icmp eq ptr %.145, null
  br i1 %29, label %.critedge.thread, label %.preheader

.preheader:                                       ; preds = %.critedge
  %30 = getelementptr inbounds nuw i8, ptr %.145, i64 8
  %31 = load ptr, ptr %30, align 8, !tbaa !18
  %32 = getelementptr i8, ptr %31, i64 4
  %.val = load i32, ptr %32, align 4, !tbaa !45
  %33 = icmp sgt i32 %.val, 0
  br i1 %33, label %.lr.ph57, label %.critedge2

.lr.ph57:                                         ; preds = %.preheader
  %34 = getelementptr i8, ptr %31, i64 8
  %.val49 = load ptr, ptr %34, align 8, !tbaa !19
  %35 = getelementptr i8, ptr %0, i64 24
  %.val51 = load ptr, ptr %35, align 8, !tbaa !21
  %wide.trip.count64 = zext nneg i32 %.val to i64
  br label %36

36:                                               ; preds = %.lr.ph57, %53
  %indvars.iv61 = phi i64 [ 0, %.lr.ph57 ], [ %indvars.iv.next62, %53 ]
  %.03955 = phi ptr [ null, %.lr.ph57 ], [ %.140, %53 ]
  %.04154 = phi ptr [ null, %.lr.ph57 ], [ %.142, %53 ]
  %37 = getelementptr inbounds nuw i32, ptr %.val49, i64 %indvars.iv61
  %38 = load i32, ptr %37, align 4, !tbaa !46
  %39 = sext i32 %38 to i64
  %40 = getelementptr inbounds ptr, ptr %.val51, i64 %39
  %41 = load ptr, ptr %40, align 8, !tbaa !25
  %42 = icmp eq ptr %.04154, null
  br i1 %42, label %53, label %43

43:                                               ; preds = %36
  %44 = icmp eq ptr %.03955, null
  br i1 %44, label %53, label %45

45:                                               ; preds = %43
  %46 = getelementptr inbounds nuw i8, ptr %.04154, i64 4
  %47 = load i32, ptr %46, align 4, !tbaa !58
  %48 = getelementptr inbounds nuw i8, ptr %41, i64 4
  %49 = load i32, ptr %48, align 4, !tbaa !58
  %50 = icmp sgt i32 %47, %49
  %.phi.trans.insert = getelementptr inbounds nuw i8, ptr %.03955, i64 4
  %.pre = load i32, ptr %.phi.trans.insert, align 4, !tbaa !58
  %51 = icmp sgt i32 %.pre, %49
  %or.cond = select i1 %50, i1 true, i1 %51
  br i1 %or.cond, label %._crit_edge, label %53

._crit_edge:                                      ; preds = %45
  %52 = icmp sgt i32 %47, %.pre
  %..041 = select i1 %52, ptr %41, ptr %.04154
  %.039. = select i1 %52, ptr %.03955, ptr %41
  br label %53

53:                                               ; preds = %45, %._crit_edge, %43, %36
  %.142 = phi ptr [ %41, %36 ], [ %.04154, %43 ], [ %..041, %._crit_edge ], [ %.04154, %45 ]
  %.140 = phi ptr [ %.03955, %36 ], [ %41, %43 ], [ %.039., %._crit_edge ], [ %.03955, %45 ]
  %indvars.iv.next62 = add nuw nsw i64 %indvars.iv61, 1
  %exitcond65.not = icmp eq i64 %indvars.iv.next62, %wide.trip.count64
  br i1 %exitcond65.not, label %.critedge2, label %36, !llvm.loop !100

.critedge2:                                       ; preds = %53, %.preheader
  %.041.lcssa = phi ptr [ null, %.preheader ], [ %.142, %53 ]
  %.039.lcssa = phi ptr [ null, %.preheader ], [ %.140, %53 ]
  store ptr %.041.lcssa, ptr %1, align 8, !tbaa !25
  store ptr %.039.lcssa, ptr %2, align 8, !tbaa !25
  br label %.critedge.thread

.critedge.thread:                                 ; preds = %3, %.critedge, %.critedge2
  %.043 = phi i32 [ 1, %.critedge2 ], [ 0, %.critedge ], [ 0, %3 ]
  ret i32 %.043
}